ARM GAS  C:\Users\daova\AppData\Local\Temp\ccMDu3PR.s 			page 1


   1              		.cpu cortex-m4
   2              		.arch armv7e-m
   3              		.fpu fpv4-sp-d16
   4              		.eabi_attribute 27, 1
   5              		.eabi_attribute 28, 1
   6              		.eabi_attribute 20, 1
   7              		.eabi_attribute 21, 1
   8              		.eabi_attribute 23, 3
   9              		.eabi_attribute 24, 1
  10              		.eabi_attribute 25, 1
  11              		.eabi_attribute 26, 1
  12              		.eabi_attribute 30, 1
  13              		.eabi_attribute 34, 1
  14              		.eabi_attribute 18, 4
  15              		.file	"it.c"
  16              		.text
  17              	.Ltext0:
  18              		.cfi_sections	.debug_frame
  19              		.file 1 "src/common/it.c"
  20              		.section	.text.SystemInit,"ax",%progbits
  21              		.align	1
  22              		.global	SystemInit
  23              		.syntax unified
  24              		.thumb
  25              		.thumb_func
  27              	SystemInit:
  28              	.LFB0:
   1:src/common/it.c **** 
   2:src/common/it.c **** 
   3:src/common/it.c **** /********   Interrupt function handle   ********/
   4:src/common/it.c **** 
   5:src/common/it.c **** void SystemInit(void)
   6:src/common/it.c **** {
  29              		.loc 1 6 1 view -0
  30              		.cfi_startproc
  31              		@ args = 0, pretend = 0, frame = 0
  32              		@ frame_needed = 0, uses_anonymous_args = 0
  33              		@ link register save eliminated.
   7:src/common/it.c **** 
   8:src/common/it.c **** }
  34              		.loc 1 8 1 view .LVU1
  35 0000 7047     		bx	lr
  36              		.cfi_endproc
  37              	.LFE0:
  39              		.section	.text.SysTick_Handler,"ax",%progbits
  40              		.align	1
  41              		.global	SysTick_Handler
  42              		.syntax unified
  43              		.thumb
  44              		.thumb_func
  46              	SysTick_Handler:
  47              	.LFB1:
   9:src/common/it.c **** 
  10:src/common/it.c **** void SysTick_Handler(void)
  11:src/common/it.c **** {
  48              		.loc 1 11 1 view -0
  49              		.cfi_startproc
ARM GAS  C:\Users\daova\AppData\Local\Temp\ccMDu3PR.s 			page 2


  50              		@ Volatile: function does not return.
  51              		@ args = 0, pretend = 0, frame = 0
  52              		@ frame_needed = 0, uses_anonymous_args = 0
  53              		@ link register save eliminated.
  54              	.L3:
  12:src/common/it.c ****   while(1)
  55              		.loc 1 12 3 discriminator 1 view .LVU3
  13:src/common/it.c ****   {
  14:src/common/it.c ****     //Do something ...
  15:src/common/it.c ****   }
  56              		.loc 1 15 3 discriminator 1 view .LVU4
  12:src/common/it.c ****   while(1)
  57              		.loc 1 12 8 discriminator 1 view .LVU5
  58 0000 FEE7     		b	.L3
  59              		.cfi_endproc
  60              	.LFE1:
  62              		.section	.text.Reserved_Handler,"ax",%progbits
  63              		.align	1
  64              		.global	Reserved_Handler
  65              		.syntax unified
  66              		.thumb
  67              		.thumb_func
  69              	Reserved_Handler:
  70              	.LFB2:
  16:src/common/it.c **** }
  17:src/common/it.c **** 
  18:src/common/it.c **** void Reserved_Handler(void) //Dummy function (need to be renamed) 
  19:src/common/it.c **** {
  71              		.loc 1 19 1 view -0
  72              		.cfi_startproc
  73              		@ args = 0, pretend = 0, frame = 0
  74              		@ frame_needed = 0, uses_anonymous_args = 0
  75              		@ link register save eliminated.
  20:src/common/it.c ****   // .....................
  21:src/common/it.c **** }
  76              		.loc 1 21 1 view .LVU7
  77 0000 7047     		bx	lr
  78              		.cfi_endproc
  79              	.LFE2:
  81              		.section	.text.NMI_Handler,"ax",%progbits
  82              		.align	1
  83              		.global	NMI_Handler
  84              		.syntax unified
  85              		.thumb
  86              		.thumb_func
  88              	NMI_Handler:
  89              	.LFB3:
  22:src/common/it.c **** 
  23:src/common/it.c **** void NMI_Handler(void)
  24:src/common/it.c **** {
  90              		.loc 1 24 1 view -0
  91              		.cfi_startproc
  92              		@ Volatile: function does not return.
  93              		@ args = 0, pretend = 0, frame = 0
  94              		@ frame_needed = 0, uses_anonymous_args = 0
  95              		@ link register save eliminated.
  96              	.L6:
ARM GAS  C:\Users\daova\AppData\Local\Temp\ccMDu3PR.s 			page 3


  25:src/common/it.c ****   while(1)
  97              		.loc 1 25 3 discriminator 1 view .LVU9
  26:src/common/it.c ****   {
  27:src/common/it.c ****     //Do something ...
  28:src/common/it.c ****   }
  98              		.loc 1 28 3 discriminator 1 view .LVU10
  25:src/common/it.c ****   while(1)
  99              		.loc 1 25 8 discriminator 1 view .LVU11
 100 0000 FEE7     		b	.L6
 101              		.cfi_endproc
 102              	.LFE3:
 104              		.section	.text.HardFault_Handler,"ax",%progbits
 105              		.align	1
 106              		.global	HardFault_Handler
 107              		.syntax unified
 108              		.thumb
 109              		.thumb_func
 111              	HardFault_Handler:
 112              	.LFB4:
  29:src/common/it.c **** }
  30:src/common/it.c **** 
  31:src/common/it.c **** void HardFault_Handler(void)
  32:src/common/it.c **** {
 113              		.loc 1 32 1 view -0
 114              		.cfi_startproc
 115              		@ Volatile: function does not return.
 116              		@ args = 0, pretend = 0, frame = 0
 117              		@ frame_needed = 0, uses_anonymous_args = 0
 118              		@ link register save eliminated.
 119              	.L8:
  33:src/common/it.c ****   while(1)
 120              		.loc 1 33 3 discriminator 1 view .LVU13
  34:src/common/it.c ****   {
  35:src/common/it.c ****     //Do something ...
  36:src/common/it.c ****   }
 121              		.loc 1 36 3 discriminator 1 view .LVU14
  33:src/common/it.c ****   while(1)
 122              		.loc 1 33 8 discriminator 1 view .LVU15
 123 0000 FEE7     		b	.L8
 124              		.cfi_endproc
 125              	.LFE4:
 127              		.section	.text.MemManage_Handler,"ax",%progbits
 128              		.align	1
 129              		.global	MemManage_Handler
 130              		.syntax unified
 131              		.thumb
 132              		.thumb_func
 134              	MemManage_Handler:
 135              	.LFB5:
  37:src/common/it.c **** }
  38:src/common/it.c **** 
  39:src/common/it.c **** 
  40:src/common/it.c **** void MemManage_Handler(void)
  41:src/common/it.c **** {
 136              		.loc 1 41 1 view -0
 137              		.cfi_startproc
 138              		@ Volatile: function does not return.
ARM GAS  C:\Users\daova\AppData\Local\Temp\ccMDu3PR.s 			page 4


 139              		@ args = 0, pretend = 0, frame = 0
 140              		@ frame_needed = 0, uses_anonymous_args = 0
 141              		@ link register save eliminated.
 142              	.L10:
  42:src/common/it.c ****   while(1)
 143              		.loc 1 42 3 discriminator 1 view .LVU17
  43:src/common/it.c ****   {
  44:src/common/it.c ****     //Do something ...
  45:src/common/it.c ****   }
 144              		.loc 1 45 3 discriminator 1 view .LVU18
  42:src/common/it.c ****   while(1)
 145              		.loc 1 42 8 discriminator 1 view .LVU19
 146 0000 FEE7     		b	.L10
 147              		.cfi_endproc
 148              	.LFE5:
 150              		.section	.text.BusFault_Handler,"ax",%progbits
 151              		.align	1
 152              		.global	BusFault_Handler
 153              		.syntax unified
 154              		.thumb
 155              		.thumb_func
 157              	BusFault_Handler:
 158              	.LFB6:
  46:src/common/it.c **** }
  47:src/common/it.c **** 
  48:src/common/it.c **** void BusFault_Handler(void)
  49:src/common/it.c **** {
 159              		.loc 1 49 1 view -0
 160              		.cfi_startproc
 161              		@ Volatile: function does not return.
 162              		@ args = 0, pretend = 0, frame = 0
 163              		@ frame_needed = 0, uses_anonymous_args = 0
 164              		@ link register save eliminated.
 165              	.L12:
  50:src/common/it.c ****   while(1)
 166              		.loc 1 50 3 discriminator 1 view .LVU21
  51:src/common/it.c ****   {
  52:src/common/it.c ****     //Do something ...
  53:src/common/it.c ****   }
 167              		.loc 1 53 3 discriminator 1 view .LVU22
  50:src/common/it.c ****   while(1)
 168              		.loc 1 50 8 discriminator 1 view .LVU23
 169 0000 FEE7     		b	.L12
 170              		.cfi_endproc
 171              	.LFE6:
 173              		.section	.text.UsageFault_Handler,"ax",%progbits
 174              		.align	1
 175              		.global	UsageFault_Handler
 176              		.syntax unified
 177              		.thumb
 178              		.thumb_func
 180              	UsageFault_Handler:
 181              	.LFB7:
  54:src/common/it.c **** }
  55:src/common/it.c **** 
  56:src/common/it.c **** void UsageFault_Handler(void)
  57:src/common/it.c **** {
ARM GAS  C:\Users\daova\AppData\Local\Temp\ccMDu3PR.s 			page 5


 182              		.loc 1 57 1 view -0
 183              		.cfi_startproc
 184              		@ Volatile: function does not return.
 185              		@ args = 0, pretend = 0, frame = 0
 186              		@ frame_needed = 0, uses_anonymous_args = 0
 187              		@ link register save eliminated.
 188              	.L14:
  58:src/common/it.c ****   while(1)
 189              		.loc 1 58 3 discriminator 1 view .LVU25
  59:src/common/it.c ****   {
  60:src/common/it.c ****     //Do something ...
  61:src/common/it.c ****   }
 190              		.loc 1 61 3 discriminator 1 view .LVU26
  58:src/common/it.c ****   while(1)
 191              		.loc 1 58 8 discriminator 1 view .LVU27
 192 0000 FEE7     		b	.L14
 193              		.cfi_endproc
 194              	.LFE7:
 196              		.section	.text.SVC_Handler,"ax",%progbits
 197              		.align	1
 198              		.global	SVC_Handler
 199              		.syntax unified
 200              		.thumb
 201              		.thumb_func
 203              	SVC_Handler:
 204              	.LFB8:
  62:src/common/it.c **** }
  63:src/common/it.c **** 
  64:src/common/it.c **** void SVC_Handler(void)
  65:src/common/it.c **** {
 205              		.loc 1 65 1 view -0
 206              		.cfi_startproc
 207              		@ Volatile: function does not return.
 208              		@ args = 0, pretend = 0, frame = 0
 209              		@ frame_needed = 0, uses_anonymous_args = 0
 210              		@ link register save eliminated.
 211              	.L16:
  66:src/common/it.c ****   while(1)
 212              		.loc 1 66 3 discriminator 1 view .LVU29
  67:src/common/it.c ****   {
  68:src/common/it.c ****     //Do something ...
  69:src/common/it.c ****   }
 213              		.loc 1 69 3 discriminator 1 view .LVU30
  66:src/common/it.c ****   while(1)
 214              		.loc 1 66 8 discriminator 1 view .LVU31
 215 0000 FEE7     		b	.L16
 216              		.cfi_endproc
 217              	.LFE8:
 219              		.section	.text.DebugMon_Handler,"ax",%progbits
 220              		.align	1
 221              		.global	DebugMon_Handler
 222              		.syntax unified
 223              		.thumb
 224              		.thumb_func
 226              	DebugMon_Handler:
 227              	.LFB9:
  70:src/common/it.c **** }
ARM GAS  C:\Users\daova\AppData\Local\Temp\ccMDu3PR.s 			page 6


  71:src/common/it.c **** 
  72:src/common/it.c **** void DebugMon_Handler(void)
  73:src/common/it.c **** {
 228              		.loc 1 73 1 view -0
 229              		.cfi_startproc
 230              		@ Volatile: function does not return.
 231              		@ args = 0, pretend = 0, frame = 0
 232              		@ frame_needed = 0, uses_anonymous_args = 0
 233              		@ link register save eliminated.
 234              	.L18:
  74:src/common/it.c ****   while(1)
 235              		.loc 1 74 3 discriminator 1 view .LVU33
  75:src/common/it.c ****   {
  76:src/common/it.c ****     //Do something ...
  77:src/common/it.c ****   }
 236              		.loc 1 77 3 discriminator 1 view .LVU34
  74:src/common/it.c ****   while(1)
 237              		.loc 1 74 8 discriminator 1 view .LVU35
 238 0000 FEE7     		b	.L18
 239              		.cfi_endproc
 240              	.LFE9:
 242              		.section	.text.PendSV_Handler,"ax",%progbits
 243              		.align	1
 244              		.global	PendSV_Handler
 245              		.syntax unified
 246              		.thumb
 247              		.thumb_func
 249              	PendSV_Handler:
 250              	.LFB10:
  78:src/common/it.c **** }
  79:src/common/it.c **** 
  80:src/common/it.c **** void PendSV_Handler(void)
  81:src/common/it.c **** {
 251              		.loc 1 81 1 view -0
 252              		.cfi_startproc
 253              		@ Volatile: function does not return.
 254              		@ args = 0, pretend = 0, frame = 0
 255              		@ frame_needed = 0, uses_anonymous_args = 0
 256              		@ link register save eliminated.
 257              	.L20:
  82:src/common/it.c ****   while(1)
 258              		.loc 1 82 3 discriminator 1 view .LVU37
  83:src/common/it.c ****   {
  84:src/common/it.c ****     //Do something ...
  85:src/common/it.c ****   }
 259              		.loc 1 85 3 discriminator 1 view .LVU38
  82:src/common/it.c ****   while(1)
 260              		.loc 1 82 8 discriminator 1 view .LVU39
 261 0000 FEE7     		b	.L20
 262              		.cfi_endproc
 263              	.LFE10:
 265              		.text
 266              	.Letext0:
ARM GAS  C:\Users\daova\AppData\Local\Temp\ccMDu3PR.s 			page 7

